target datalayout = "e-m:e-p270:32:32-p271:32:32-p272:64:64-i64:64-i128:128-f80:128-n8:16:32:64-S128"
target triple = "x86_64-pc-linux-gnu"

%struct._object = type { %union.anon, ptr }
%union.anon = type { i64 }
%struct.PyVarObject = type { %struct._object, i64 }
%struct._typeobject = type { %struct.PyVarObject, ptr, i64, i64, ptr, i64, ptr, ptr, ptr, ptr, ptr, ptr, ptr, ptr, ptr, ptr, ptr, ptr, ptr, i64, ptr, ptr, ptr, ptr, i64, ptr, ptr, ptr, ptr, ptr, ptr, ptr, ptr, ptr, i64, ptr, ptr, ptr, ptr, ptr, ptr, ptr, ptr, ptr, ptr, ptr, i32, ptr, ptr, i8, i16 }
%struct._excinfo = type { %struct._excinfo_type, ptr, ptr }
%struct._excinfo_type = type { ptr, ptr, ptr, ptr }
%struct.anon = type { i32, i32 }

@_Py_NoneStruct = external global %struct._object, align 8
@PyExc_TypeError = external global ptr, align 8
@capture_exception.kwlist = internal global [2 x ptr] [ptr @.str.94, ptr null], align 16
@.str.95 = private unnamed_addr constant [21 x i8] c"|O:capture_exception\00", align 1
@.str.96 = private unnamed_addr constant [27 x i8] c"expected exception, got %R\00", align 1
@.str.97 = private unnamed_addr constant [10 x i8] c"formatted\00", align 1

; Function Attrs: alwaysinline nounwind uwtable
define internal i32 @_Py_IsImmortal(ptr noundef %0) #4 {
  %2 = alloca ptr, align 8
  store ptr %0, ptr %2, align 8, !tbaa !3
  %3 = load ptr, ptr %2, align 8, !tbaa !3
  %4 = getelementptr inbounds nuw %struct._object, ptr %3, i32 0, i32 0
  %5 = getelementptr inbounds nuw %struct.anon, ptr %4, i32 0, i32 0
  %6 = load i32, ptr %5, align 8, !tbaa !38
  %7 = icmp slt i32 %6, 0
  %8 = zext i1 %7 to i32
  ret i32 %8
}

; Function Attrs: alwaysinline nounwind uwtable
define internal void @Py_DECREF(ptr noundef %0) #4 {
  %2 = alloca ptr, align 8
  store ptr %0, ptr %2, align 8, !tbaa !3
  %3 = load ptr, ptr %2, align 8, !tbaa !3
  %4 = call i32 @_Py_IsImmortal(ptr noundef %3)
  %5 = icmp ne i32 %4, 0
  br i1 %5, label %6, label %7

6:                                                ; preds = %1
  br label %16

7:                                                ; preds = %1
  %8 = load ptr, ptr %2, align 8, !tbaa !3
  %9 = getelementptr inbounds nuw %struct._object, ptr %8, i32 0, i32 0
  %10 = getelementptr inbounds nuw %struct.anon, ptr %9, i32 0, i32 0
  %11 = load i32, ptr %10, align 8, !tbaa !38
  %12 = add i32 %11, -1
  store i32 %12, ptr %10, align 8, !tbaa !38
  %13 = icmp eq i32 %12, 0
  br i1 %13, label %14, label %16

14:                                               ; preds = %7
  %15 = load ptr, ptr %2, align 8, !tbaa !3
  call void @_Py_Dealloc(ptr noundef %15)
  br label %16

16:                                               ; preds = %6, %14, %7
  ret void
}

; Function Attrs: inlinehint nounwind uwtable
define internal i32 @PyType_HasFeature(ptr noundef %0, i64 noundef %1) #3 {
  %3 = alloca ptr, align 8
  %4 = alloca i64, align 8
  %5 = alloca i64, align 8
  store ptr %0, ptr %3, align 8, !tbaa !39
  store i64 %1, ptr %4, align 8, !tbaa !13
  call void @llvm.lifetime.start.p0(i64 8, ptr %5) #8
  %6 = load ptr, ptr %3, align 8, !tbaa !39
  %7 = getelementptr inbounds nuw %struct._typeobject, ptr %6, i32 0, i32 19
  %8 = load i64, ptr %7, align 8, !tbaa !40
  store i64 %8, ptr %5, align 8, !tbaa !13
  %9 = load i64, ptr %5, align 8, !tbaa !13
  %10 = load i64, ptr %4, align 8, !tbaa !13
  %11 = and i64 %9, %10
  %12 = icmp ne i64 %11, 0
  %13 = zext i1 %12 to i32
  call void @llvm.lifetime.end.p0(i64 8, ptr %5) #8
  ret i32 %13
}

; Function Attrs: inlinehint nounwind uwtable
define internal ptr @_Py_TYPE(ptr noundef %0) #3 {
  %2 = alloca ptr, align 8
  store ptr %0, ptr %2, align 8, !tbaa !3
  %3 = load ptr, ptr %2, align 8, !tbaa !3
  %4 = getelementptr inbounds nuw %struct._object, ptr %3, i32 0, i32 1
  %5 = load ptr, ptr %4, align 8, !tbaa !47
  ret ptr %5
}

; Function Attrs: nounwind uwtable
define internal ptr @capture_exception(ptr noundef %0, ptr noundef %1, ptr noundef %2) #0 {
  %4 = alloca ptr, align 8
  %5 = alloca ptr, align 8
  %6 = alloca ptr, align 8
  %7 = alloca ptr, align 8
  %8 = alloca ptr, align 8
  %9 = alloca i32, align 4
  %10 = alloca ptr, align 8
  %11 = alloca ptr, align 8
  %12 = alloca %struct._excinfo, align 8
  %13 = alloca ptr, align 8
  %14 = alloca ptr, align 8
  %15 = alloca ptr, align 8
  %16 = alloca i32, align 4
  %17 = alloca ptr, align 8
  %18 = alloca ptr, align 8
  store ptr %0, ptr %5, align 8, !tbaa !3
  store ptr %1, ptr %6, align 8, !tbaa !3
  store ptr %2, ptr %7, align 8, !tbaa !3
  call void @llvm.lifetime.start.p0(i64 8, ptr %8) #8
  store ptr null, ptr %8, align 8, !tbaa !3
  %19 = load ptr, ptr %6, align 8, !tbaa !3
  %20 = load ptr, ptr %7, align 8, !tbaa !3
  %21 = call i32 (ptr, ptr, ptr, ptr, ...) @PyArg_ParseTupleAndKeywords(ptr noundef %19, ptr noundef %20, ptr noundef @.str.95, ptr noundef @capture_exception.kwlist, ptr noundef %8)
  %22 = icmp ne i32 %21, 0
  br i1 %22, label %24, label %23

23:                                               ; preds = %3
  store ptr null, ptr %4, align 8
  store i32 1, ptr %9, align 4
  br label %108

24:                                               ; preds = %3
  call void @llvm.lifetime.start.p0(i64 8, ptr %10) #8
  %25 = load ptr, ptr %8, align 8, !tbaa !3
  store ptr %25, ptr %10, align 8, !tbaa !3
  %26 = load ptr, ptr %10, align 8, !tbaa !3
  %27 = icmp eq ptr %26, null
  br i1 %27, label %31, label %28

28:                                               ; preds = %24
  %29 = load ptr, ptr %10, align 8, !tbaa !3
  %30 = icmp eq ptr %29, @_Py_NoneStruct
  br i1 %30, label %31, label %37

31:                                               ; preds = %28, %24
  %32 = call ptr @PyErr_GetRaisedException()
  store ptr %32, ptr %10, align 8, !tbaa !3
  %33 = load ptr, ptr %10, align 8, !tbaa !3
  %34 = icmp eq ptr %33, null
  br i1 %34, label %35, label %36

35:                                               ; preds = %31
  store ptr @_Py_NoneStruct, ptr %4, align 8
  store i32 1, ptr %9, align 4
  br label %107

36:                                               ; preds = %31
  br label %47

37:                                               ; preds = %28
  %38 = load ptr, ptr %10, align 8, !tbaa !3
  %39 = call ptr @_Py_TYPE(ptr noundef %38)
  %40 = call i32 @PyType_HasFeature(ptr noundef %39, i64 noundef 1073741824)
  %41 = icmp ne i32 %40, 0
  br i1 %41, label %46, label %42

42:                                               ; preds = %37
  %43 = load ptr, ptr @PyExc_TypeError, align 8, !tbaa !3
  %44 = load ptr, ptr %10, align 8, !tbaa !3
  %45 = call ptr (ptr, ptr, ...) @PyErr_Format(ptr noundef %43, ptr noundef @.str.96, ptr noundef %44)
  store ptr null, ptr %4, align 8
  store i32 1, ptr %9, align 4
  br label %107

46:                                               ; preds = %37
  br label %47

47:                                               ; preds = %46, %36
  call void @llvm.lifetime.start.p0(i64 8, ptr %11) #8
  store ptr null, ptr %11, align 8, !tbaa !3
  call void @llvm.lifetime.start.p0(i64 48, ptr %12) #8
  call void @llvm.memset.p0.i64(ptr align 8 %12, i8 0, i64 48, i1 false)
  %48 = load ptr, ptr %10, align 8, !tbaa !3
  %49 = call i32 @_PyXI_InitExcInfo(ptr noundef %12, ptr noundef %48)
  %50 = icmp slt i32 %49, 0
  br i1 %50, label %51, label %52

51:                                               ; preds = %47
  br label %93

52:                                               ; preds = %47
  %53 = call ptr @_PyXI_ExcInfoAsObject(ptr noundef %12)
  store ptr %53, ptr %11, align 8, !tbaa !3
  %54 = load ptr, ptr %11, align 8, !tbaa !3
  %55 = icmp eq ptr %54, null
  br i1 %55, label %56, label %57

56:                                               ; preds = %52
  br label %93

57:                                               ; preds = %52
  %58 = call ptr @_PyXI_FormatExcInfo(ptr noundef %12)
  store ptr %58, ptr %13, align 8, !tbaa !3
  %59 = load ptr, ptr %13, align 8, !tbaa !3
  %60 = icmp eq ptr %59, null
  br i1 %60, label %61, label %73

61:                                               ; preds = %57
  br label %62

62:                                               ; preds = %61
  call void @llvm.lifetime.start.p0(i64 8, ptr %14) #8
  store ptr %11, ptr %14, align 8, !tbaa !21
  call void @llvm.lifetime.start.p0(i64 8, ptr %15) #8
  %63 = load ptr, ptr %14, align 8, !tbaa !21
  %64 = load ptr, ptr %63, align 8, !tbaa !3
  store ptr %64, ptr %15, align 8, !tbaa !3
  %65 = load ptr, ptr %15, align 8, !tbaa !3
  %66 = icmp ne ptr %65, null
  br i1 %66, label %67, label %70

67:                                               ; preds = %62
  %68 = load ptr, ptr %14, align 8, !tbaa !21
  store ptr null, ptr %68, align 8, !tbaa !3
  %69 = load ptr, ptr %15, align 8, !tbaa !3
  call void @Py_DECREF(ptr noundef %69)
  br label %70

70:                                               ; preds = %67, %62
  call void @llvm.lifetime.end.p0(i64 8, ptr %15) #8
  call void @llvm.lifetime.end.p0(i64 8, ptr %14) #8
  br label %71

71:                                               ; preds = %70
  br label %72

72:                                               ; preds = %71
  br label %93

73:                                               ; preds = %57
  %74 = load ptr, ptr %11, align 8, !tbaa !3
  %75 = load ptr, ptr %13, align 8, !tbaa !3
  %76 = call i32 @PyObject_SetAttrString(ptr noundef %74, ptr noundef @.str.97, ptr noundef %75)
  store i32 %76, ptr %16, align 4, !tbaa !11
  %77 = load ptr, ptr %13, align 8, !tbaa !3
  call void @Py_DECREF(ptr noundef %77)
  %78 = load i32, ptr %16, align 4, !tbaa !11
  %79 = icmp slt i32 %78, 0
  br i1 %79, label %80, label %92

80:                                               ; preds = %73
  br label %81

81:                                               ; preds = %80
  call void @llvm.lifetime.start.p0(i64 8, ptr %17) #8
  store ptr %11, ptr %17, align 8, !tbaa !21
  call void @llvm.lifetime.start.p0(i64 8, ptr %18) #8
  %82 = load ptr, ptr %17, align 8, !tbaa !21
  %83 = load ptr, ptr %82, align 8, !tbaa !3
  store ptr %83, ptr %18, align 8, !tbaa !3
  %84 = load ptr, ptr %18, align 8, !tbaa !3
  %85 = icmp ne ptr %84, null
  br i1 %85, label %86, label %89

86:                                               ; preds = %81
  %87 = load ptr, ptr %17, align 8, !tbaa !21
  store ptr null, ptr %87, align 8, !tbaa !3
  %88 = load ptr, ptr %18, align 8, !tbaa !3
  call void @Py_DECREF(ptr noundef %88)
  br label %89

89:                                               ; preds = %86, %81
  call void @llvm.lifetime.end.p0(i64 8, ptr %18) #8
  call void @llvm.lifetime.end.p0(i64 8, ptr %17) #8
  br label %90

90:                                               ; preds = %89
  br label %91

91:                                               ; preds = %90
  br label %93

92:                                               ; preds = %73
  br label %93

93:                                               ; preds = %92, %91, %72, %56, %51
  call void @_PyXI_ClearExcInfo(ptr noundef %12)
  %94 = load ptr, ptr %10, align 8, !tbaa !3
  %95 = load ptr, ptr %8, align 8, !tbaa !3
  %96 = icmp ne ptr %94, %95
  br i1 %96, label %97, label %105

97:                                               ; preds = %93
  %98 = call ptr @PyErr_Occurred()
  %99 = icmp ne ptr %98, null
  br i1 %99, label %100, label %102

100:                                              ; preds = %97
  %101 = load ptr, ptr %10, align 8, !tbaa !3
  call void @PyErr_SetRaisedException(ptr noundef %101)
  br label %104

102:                                              ; preds = %97
  %103 = load ptr, ptr %10, align 8, !tbaa !3
  call void @_PyErr_ChainExceptions1(ptr noundef %103)
  br label %104

104:                                              ; preds = %102, %100
  br label %105

105:                                              ; preds = %104, %93
  %106 = load ptr, ptr %11, align 8, !tbaa !3
  store ptr %106, ptr %4, align 8
  store i32 1, ptr %9, align 4
  call void @llvm.lifetime.end.p0(i64 48, ptr %12) #8
  call void @llvm.lifetime.end.p0(i64 8, ptr %11) #8
  br label %107

107:                                              ; preds = %105, %42, %35
  call void @llvm.lifetime.end.p0(i64 8, ptr %10) #8
  br label %108

108:                                              ; preds = %107, %23
  call void @llvm.lifetime.end.p0(i64 8, ptr %8) #8
  %109 = load ptr, ptr %4, align 8
  ret ptr %109
}