; Function Attrs: nounwind uwtable
define internal ptr @capture_exception(ptr readnone captures(none) %0, ptr noundef %1, ptr noundef %2) #0 {
  %4 = alloca ptr, align 8
  %5 = alloca %struct._excinfo, align 8
  call void @llvm.lifetime.start.p0(i64 8, ptr nonnull %4) #7
  store ptr null, ptr %4, align 8, !tbaa !15
  %6 = call i32 (ptr, ptr, ptr, ptr, ...) @PyArg_ParseTupleAndKeywords(ptr noundef %1, ptr noundef %2, ptr noundef nonnull @.str.95, ptr noundef nonnull @capture_exception.kwlist, ptr noundef nonnull %4) #7
  %.not = icmp eq i32 %6, 0
  br i1 %.not, label %54, label %7

7:                                                ; preds = %3
  %8 = load ptr, ptr %4, align 8, !tbaa !15
  %9 = icmp eq ptr %8, null
  %10 = icmp eq ptr %8, @_Py_NoneStruct
  %or.cond = or i1 %9, %10
  br i1 %or.cond, label %11, label %14

11:                                               ; preds = %7
  %12 = call ptr @PyErr_GetRaisedException() #7
  %13 = icmp eq ptr %12, null
  br i1 %13, label %54, label %21

14:                                               ; preds = %7
  %15 = getelementptr i8, ptr %8, i64 8
  %.val = load ptr, ptr %15, align 8, !tbaa !23
  %16 = getelementptr i8, ptr %.val, i64 168
  %.val45 = load i64, ptr %16, align 8, !tbaa !24
  %17 = and i64 %.val45, 1073741824
  %.not36 = icmp eq i64 %17, 0
  br i1 %.not36, label %18, label %21

18:                                               ; preds = %14
  %19 = load ptr, ptr @PyExc_TypeError, align 8, !tbaa !15
  %20 = call ptr (ptr, ptr, ...) @PyErr_Format(ptr noundef %19, ptr noundef nonnull @.str.96, ptr noundef nonnull %8) #7
  br label %54

21:                                               ; preds = %14, %11
  %.024 = phi ptr [ %12, %11 ], [ %8, %14 ]
  call void @llvm.lifetime.start.p0(i64 48, ptr nonnull %5) #7
  call void @llvm.memset.p0.i64(ptr noundef nonnull align 8 dereferenceable(48) %5, i8 0, i64 48, i1 false)
  %22 = call i32 @_PyXI_InitExcInfo(ptr noundef nonnull %5, ptr noundef nonnull %.024) #7
  %23 = icmp slt i32 %22, 0
  br i1 %23, label %Py_DECREF.exit, label %24

24:                                               ; preds = %21
  %25 = call ptr @_PyXI_ExcInfoAsObject(ptr noundef nonnull %5) #7
  %26 = icmp eq ptr %25, null
  br i1 %26, label %Py_DECREF.exit, label %27

27:                                               ; preds = %24
  %28 = call ptr @_PyXI_FormatExcInfo(ptr noundef nonnull %5) #7
  %29 = icmp eq ptr %28, null
  br i1 %29, label %30, label %35

30:                                               ; preds = %27
  %31 = load i32, ptr %25, align 8, !tbaa !11
  %.not.i = icmp sgt i32 %31, -1
  br i1 %.not.i, label %32, label %Py_DECREF.exit

32:                                               ; preds = %30
  %33 = add nsw i32 %31, -1
  store i32 %33, ptr %25, align 8, !tbaa !11
  %34 = icmp eq i32 %33, 0
  br i1 %34, label %Py_DECREF.exit.sink.split, label %Py_DECREF.exit

35:                                               ; preds = %27
  %36 = call i32 @PyObject_SetAttrString(ptr noundef nonnull %25, ptr noundef nonnull @.str.97, ptr noundef nonnull %28) #7
  %37 = load i32, ptr %28, align 8, !tbaa !11
  %.not.i39 = icmp sgt i32 %37, -1
  br i1 %.not.i39, label %38, label %Py_DECREF.exit40

38:                                               ; preds = %35
  %39 = add nsw i32 %37, -1
  store i32 %39, ptr %28, align 8, !tbaa !11
  %40 = icmp eq i32 %39, 0
  br i1 %40, label %41, label %Py_DECREF.exit40

41:                                               ; preds = %38
  call void @_Py_Dealloc(ptr noundef nonnull %28) #7
  br label %Py_DECREF.exit40

Py_DECREF.exit40:                                 ; preds = %35, %38, %41
  %42 = icmp slt i32 %36, 0
  br i1 %42, label %43, label %Py_DECREF.exit

43:                                               ; preds = %Py_DECREF.exit40
  %44 = load i32, ptr %25, align 8, !tbaa !11
  %.not.i41 = icmp sgt i32 %44, -1
  br i1 %.not.i41, label %45, label %Py_DECREF.exit

45:                                               ; preds = %43
  %46 = add nsw i32 %44, -1
  store i32 %46, ptr %25, align 8, !tbaa !11
  %47 = icmp eq i32 %46, 0
  br i1 %47, label %Py_DECREF.exit.sink.split, label %Py_DECREF.exit

Py_DECREF.exit.sink.split:                        ; preds = %45, %32
  call void @_Py_Dealloc(ptr noundef nonnull %25) #7
  br label %Py_DECREF.exit

Py_DECREF.exit:                                   ; preds = %Py_DECREF.exit.sink.split, %45, %43, %32, %30, %Py_DECREF.exit40, %24, %21
  %.029 = phi ptr [ null, %21 ], [ null, %24 ], [ %25, %Py_DECREF.exit40 ], [ null, %30 ], [ null, %32 ], [ null, %43 ], [ null, %45 ], [ null, %Py_DECREF.exit.sink.split ]
  call void @_PyXI_ClearExcInfo(ptr noundef nonnull %5) #7
  %48 = load ptr, ptr %4, align 8, !tbaa !15
  %.not37 = icmp eq ptr %.024, %48
  br i1 %.not37, label %53, label %49

49:                                               ; preds = %Py_DECREF.exit
  %50 = call ptr @PyErr_Occurred() #7
  %.not38 = icmp eq ptr %50, null
  br i1 %.not38, label %52, label %51

51:                                               ; preds = %49
  call void @PyErr_SetRaisedException(ptr noundef nonnull %.024) #7
  br label %53

52:                                               ; preds = %49
  call void @_PyErr_ChainExceptions1(ptr noundef nonnull %.024) #7
  br label %53

53:                                               ; preds = %51, %52, %Py_DECREF.exit
  call void @llvm.lifetime.end.p0(i64 48, ptr nonnull %5) #7
  br label %54

54:                                               ; preds = %18, %53, %11, %3
  %.0 = phi ptr [ null, %3 ], [ %.029, %53 ], [ null, %18 ], [ @_Py_NoneStruct, %11 ]
  call void @llvm.lifetime.end.p0(i64 8, ptr nonnull %4) #7
  ret ptr %.0
}